target datalayout = "e-m:e-p270:32:32-p271:32:32-p272:64:64-i64:64-i128:128-f80:128-n8:16:32:64-S128"
target triple = "x86_64-pc-linux-gnu"

%"struct.ue2::(anonymous namespace)::raw_report_list" = type { %"class.ue2::flat_set" }
%"class.ue2::flat_set" = type { %"class.ue2::flat_detail::flat_base" }
%"class.ue2::flat_detail::flat_base" = type { %"class.std::tuple.18" }
%"class.std::tuple.18" = type { %"struct.std::_Tuple_impl.19" }
%"struct.std::_Tuple_impl.19" = type { %"struct.std::_Head_base.22" }
%"struct.std::_Head_base.22" = type { %"class.boost::container::small_vector" }
%"class.boost::container::small_vector" = type { %"class.boost::container::small_vector_base.base", [4 x i8] }
%"class.boost::container::small_vector_base.base" = type <{ %"class.boost::container::vector", %"union.boost::move_detail::aligned_struct_wrapper" }>
%"class.boost::container::vector" = type { %"struct.boost::container::vector_alloc_holder" }
%"struct.boost::container::vector_alloc_holder" = type { ptr, i64, i64 }
%"union.boost::move_detail::aligned_struct_wrapper" = type { %"struct.boost::move_detail::aligned_struct" }
%"struct.boost::move_detail::aligned_struct" = type { [4 x i8] }
%"struct.ue2::(anonymous namespace)::raw_report_info_impl" = type { %"struct.ue2::raw_report_info", %"class.std::vector.101" }
%"struct.ue2::raw_report_info" = type { ptr }
%"class.std::vector.101" = type { %"struct.std::_Vector_base.102" }
%"struct.std::_Vector_base.102" = type { %"struct.std::_Vector_base<ue2::(anonymous namespace)::raw_report_list, std::allocator<ue2::(anonymous namespace)::raw_report_list>>::_Vector_impl" }
%"struct.std::_Vector_base<ue2::(anonymous namespace)::raw_report_list, std::allocator<ue2::(anonymous namespace)::raw_report_list>>::_Vector_impl" = type { %"struct.std::_Vector_base<ue2::(anonymous namespace)::raw_report_list, std::allocator<ue2::(anonymous namespace)::raw_report_list>>::_Vector_impl_data" }
%"struct.std::_Vector_base<ue2::(anonymous namespace)::raw_report_list, std::allocator<ue2::(anonymous namespace)::raw_report_list>>::_Vector_impl_data" = type { ptr, ptr, ptr }
%"class.__gnu_cxx::__normal_iterator.259" = type { ptr }

; Function Attrs: mustprogress nounwind uwtable
define linkonce_odr hidden noundef nonnull align 8 dereferenceable(28) ptr @_ZNSt10_Head_baseILm0EN5boost9container12small_vectorIjLm1ESaIjEvEELb0EE7_M_headERKS5_(ptr noundef nonnull align 8 dereferenceable(32) %0) #1 comdat align 2 {
  %2 = alloca ptr, align 8
  store ptr %0, ptr %2, align 8
  %3 = load ptr, ptr %2, align 8
  %4 = getelementptr inbounds nuw %"struct.std::_Head_base.22", ptr %3, i32 0, i32 0
  ret ptr %4
}

; Function Attrs: mustprogress nounwind uwtable
define linkonce_odr hidden noundef nonnull align 8 dereferenceable(28) ptr @_ZNSt11_Tuple_implILm0EJN5boost9container12small_vectorIjLm1ESaIjEvEESt4lessIjEEE7_M_headERKS7_(ptr noundef nonnull align 8 dereferenceable(32) %0) #1 comdat align 2 {
  %2 = alloca ptr, align 8
  store ptr %0, ptr %2, align 8
  %3 = load ptr, ptr %2, align 8
  %4 = call noundef nonnull align 8 dereferenceable(28) ptr @_ZNSt10_Head_baseILm0EN5boost9container12small_vectorIjLm1ESaIjEvEELb0EE7_M_headERKS5_(ptr noundef nonnull align 8 dereferenceable(32) %3) #20
  ret ptr %4
}

; Function Attrs: mustprogress nounwind uwtable
define linkonce_odr hidden noundef nonnull align 8 dereferenceable(28) ptr @_ZSt12__get_helperILm0EN5boost9container12small_vectorIjLm1ESaIjEvEEJSt4lessIjEEERKT0_RKSt11_Tuple_implIXT_EJS7_DpT1_EE(ptr noundef nonnull align 8 dereferenceable(32) %0) #1 comdat {
  %2 = alloca ptr, align 8
  store ptr %0, ptr %2, align 8
  %3 = load ptr, ptr %2, align 8
  %4 = call noundef nonnull align 8 dereferenceable(28) ptr @_ZNSt11_Tuple_implILm0EJN5boost9container12small_vectorIjLm1ESaIjEvEESt4lessIjEEE7_M_headERKS7_(ptr noundef nonnull align 8 dereferenceable(32) %3) #20
  ret ptr %4
}

; Function Attrs: mustprogress nounwind uwtable
define linkonce_odr hidden noundef nonnull align 8 dereferenceable(28) ptr @_ZSt3getILm0EJN5boost9container12small_vectorIjLm1ESaIjEvEESt4lessIjEEERKNSt13tuple_elementIXT_ESt5tupleIJDpT0_EEE4typeERKSB_(ptr noundef nonnull align 8 dereferenceable(32) %0) #1 comdat {
  %2 = alloca ptr, align 8
  store ptr %0, ptr %2, align 8
  %3 = load ptr, ptr %2, align 8
  %4 = call noundef nonnull align 8 dereferenceable(28) ptr @_ZSt12__get_helperILm0EN5boost9container12small_vectorIjLm1ESaIjEvEEJSt4lessIjEEERKT0_RKSt11_Tuple_implIXT_EJS7_DpT1_EE(ptr noundef nonnull align 8 dereferenceable(32) %3) #20
  ret ptr %4
}

; Function Attrs: inlinehint mustprogress nounwind uwtable
define linkonce_odr hidden noundef i64 @_ZNK5boost9container6vectorIjNS0_22small_vector_allocatorIjSaIvEvEEvE4sizeEv(ptr noundef nonnull align 8 dereferenceable(24) %0) #4 comdat align 2 {
  %2 = alloca ptr, align 8
  store ptr %0, ptr %2, align 8
  %3 = load ptr, ptr %2, align 8
  %4 = getelementptr inbounds nuw %"class.boost::container::vector", ptr %3, i32 0, i32 0
  %5 = getelementptr inbounds nuw %"struct.boost::container::vector_alloc_holder", ptr %4, i32 0, i32 1
  %6 = load i64, ptr %5, align 8
  ret i64 %6
}

; Function Attrs: mustprogress nounwind uwtable
define linkonce_odr hidden noundef nonnull align 8 dereferenceable(28) ptr @_ZNK3ue211flat_detail9flat_baseIjSt4lessIjESaIjEE4dataEv(ptr noundef nonnull align 8 dereferenceable(32) %0) #1 comdat align 2 {
  %2 = alloca ptr, align 8
  store ptr %0, ptr %2, align 8
  %3 = load ptr, ptr %2, align 8
  %4 = getelementptr inbounds nuw %"class.ue2::flat_detail::flat_base", ptr %3, i32 0, i32 0
  %5 = call noundef nonnull align 8 dereferenceable(28) ptr @_ZSt3getILm0EJN5boost9container12small_vectorIjLm1ESaIjEvEESt4lessIjEEERKNSt13tuple_elementIXT_ESt5tupleIJDpT0_EEE4typeERKSB_(ptr noundef nonnull align 8 dereferenceable(32) %4) #20
  ret ptr %5
}

; Function Attrs: mustprogress nounwind uwtable
define internal noundef nonnull align 8 dereferenceable(8) ptr @_ZNK9__gnu_cxx17__normal_iteratorIPKN3ue212_GLOBAL__N_115raw_report_listESt6vectorIS3_SaIS3_EEE4baseEv(ptr noundef nonnull align 8 dereferenceable(8) %0) #1 align 2 {
  %2 = alloca ptr, align 8
  store ptr %0, ptr %2, align 8
  %3 = load ptr, ptr %2, align 8
  %4 = getelementptr inbounds nuw %"class.__gnu_cxx::__normal_iterator.259", ptr %3, i32 0, i32 0
  ret ptr %4
}

; Function Attrs: mustprogress nounwind uwtable
define internal void @_ZN9__gnu_cxx17__normal_iteratorIPKN3ue212_GLOBAL__N_115raw_report_listESt6vectorIS3_SaIS3_EEEC2ERKS5_(ptr noundef nonnull align 8 dereferenceable(8) %0, ptr noundef nonnull align 8 dereferenceable(8) %1) unnamed_addr #1 align 2 {
  %3 = alloca ptr, align 8
  %4 = alloca ptr, align 8
  store ptr %0, ptr %3, align 8
  store ptr %1, ptr %4, align 8
  %5 = load ptr, ptr %3, align 8
  %6 = getelementptr inbounds nuw %"class.__gnu_cxx::__normal_iterator.259", ptr %5, i32 0, i32 0
  %7 = load ptr, ptr %4, align 8
  %8 = load ptr, ptr %7, align 8
  store ptr %8, ptr %6, align 8
  ret void
}

; Function Attrs: mustprogress nounwind uwtable
define internal noundef nonnull align 8 dereferenceable(8) ptr @_ZN9__gnu_cxx17__normal_iteratorIPKN3ue212_GLOBAL__N_115raw_report_listESt6vectorIS3_SaIS3_EEEppEv(ptr noundef nonnull align 8 dereferenceable(8) %0) #1 align 2 {
  %2 = alloca ptr, align 8
  store ptr %0, ptr %2, align 8
  %3 = load ptr, ptr %2, align 8
  %4 = getelementptr inbounds nuw %"class.__gnu_cxx::__normal_iterator.259", ptr %3, i32 0, i32 0
  %5 = load ptr, ptr %4, align 8
  %6 = getelementptr inbounds nuw %"struct.ue2::(anonymous namespace)::raw_report_list", ptr %5, i32 1
  store ptr %6, ptr %4, align 8
  ret ptr %3
}

; Function Attrs: mustprogress nounwind uwtable
define linkonce_odr hidden noundef i64 @_ZNK3ue211flat_detail9flat_baseIjSt4lessIjESaIjEE4sizeEv(ptr noundef nonnull align 8 dereferenceable(32) %0) #1 comdat align 2 {
  %2 = alloca ptr, align 8
  store ptr %0, ptr %2, align 8
  %3 = load ptr, ptr %2, align 8
  %4 = call noundef nonnull align 8 dereferenceable(28) ptr @_ZNK3ue211flat_detail9flat_baseIjSt4lessIjESaIjEE4dataEv(ptr noundef nonnull align 8 dereferenceable(32) %3)
  %5 = call noundef i64 @_ZNK5boost9container6vectorIjNS0_22small_vector_allocatorIjSaIvEvEEvE4sizeEv(ptr noundef nonnull align 8 dereferenceable(24) %4) #20
  ret i64 %5
}

; Function Attrs: mustprogress nounwind uwtable
define internal noundef nonnull align 8 dereferenceable(32) ptr @_ZNK9__gnu_cxx17__normal_iteratorIPKN3ue212_GLOBAL__N_115raw_report_listESt6vectorIS3_SaIS3_EEEdeEv(ptr noundef nonnull align 8 dereferenceable(8) %0) #1 align 2 {
  %2 = alloca ptr, align 8
  store ptr %0, ptr %2, align 8
  %3 = load ptr, ptr %2, align 8
  %4 = getelementptr inbounds nuw %"class.__gnu_cxx::__normal_iterator.259", ptr %3, i32 0, i32 0
  %5 = load ptr, ptr %4, align 8
  ret ptr %5
}

; Function Attrs: inlinehint mustprogress nounwind uwtable
define internal noundef zeroext i1 @_ZN9__gnu_cxxneIPKN3ue212_GLOBAL__N_115raw_report_listESt6vectorIS3_SaIS3_EEEEbRKNS_17__normal_iteratorIT_T0_EESE_(ptr noundef nonnull align 8 dereferenceable(8) %0, ptr noundef nonnull align 8 dereferenceable(8) %1) #4 {
  %3 = alloca ptr, align 8
  %4 = alloca ptr, align 8
  store ptr %0, ptr %3, align 8
  store ptr %1, ptr %4, align 8
  %5 = load ptr, ptr %3, align 8
  %6 = call noundef nonnull align 8 dereferenceable(8) ptr @_ZNK9__gnu_cxx17__normal_iteratorIPKN3ue212_GLOBAL__N_115raw_report_listESt6vectorIS3_SaIS3_EEE4baseEv(ptr noundef nonnull align 8 dereferenceable(8) %5) #20
  %7 = load ptr, ptr %6, align 8
  %8 = load ptr, ptr %4, align 8
  %9 = call noundef nonnull align 8 dereferenceable(8) ptr @_ZNK9__gnu_cxx17__normal_iteratorIPKN3ue212_GLOBAL__N_115raw_report_listESt6vectorIS3_SaIS3_EEE4baseEv(ptr noundef nonnull align 8 dereferenceable(8) %8) #20
  %10 = load ptr, ptr %9, align 8
  %11 = icmp ne ptr %7, %10
  ret i1 %11
}

; Function Attrs: mustprogress nounwind uwtable
define internal ptr @_ZNKSt6vectorIN3ue212_GLOBAL__N_115raw_report_listESaIS2_EE3endEv(ptr noundef nonnull align 8 dereferenceable(24) %0) #1 align 2 {
  %2 = alloca %"class.__gnu_cxx::__normal_iterator.259", align 8
  %3 = alloca ptr, align 8
  store ptr %0, ptr %3, align 8
  %4 = load ptr, ptr %3, align 8
  %5 = getelementptr inbounds nuw %"struct.std::_Vector_base.102", ptr %4, i32 0, i32 0
  %6 = getelementptr inbounds nuw %"struct.std::_Vector_base<ue2::(anonymous namespace)::raw_report_list, std::allocator<ue2::(anonymous namespace)::raw_report_list>>::_Vector_impl_data", ptr %5, i32 0, i32 1
  call void @_ZN9__gnu_cxx17__normal_iteratorIPKN3ue212_GLOBAL__N_115raw_report_listESt6vectorIS3_SaIS3_EEEC2ERKS5_(ptr noundef nonnull align 8 dereferenceable(8) %2, ptr noundef nonnull align 8 dereferenceable(8) %6) #20
  %7 = getelementptr inbounds nuw %"class.__gnu_cxx::__normal_iterator.259", ptr %2, i32 0, i32 0
  %8 = load ptr, ptr %7, align 8
  ret ptr %8
}

; Function Attrs: mustprogress nounwind uwtable
define internal ptr @_ZNKSt6vectorIN3ue212_GLOBAL__N_115raw_report_listESaIS2_EE5beginEv(ptr noundef nonnull align 8 dereferenceable(24) %0) #1 align 2 {
  %2 = alloca %"class.__gnu_cxx::__normal_iterator.259", align 8
  %3 = alloca ptr, align 8
  store ptr %0, ptr %3, align 8
  %4 = load ptr, ptr %3, align 8
  %5 = getelementptr inbounds nuw %"struct.std::_Vector_base.102", ptr %4, i32 0, i32 0
  %6 = getelementptr inbounds nuw %"struct.std::_Vector_base<ue2::(anonymous namespace)::raw_report_list, std::allocator<ue2::(anonymous namespace)::raw_report_list>>::_Vector_impl_data", ptr %5, i32 0, i32 0
  call void @_ZN9__gnu_cxx17__normal_iteratorIPKN3ue212_GLOBAL__N_115raw_report_listESt6vectorIS3_SaIS3_EEEC2ERKS5_(ptr noundef nonnull align 8 dereferenceable(8) %2, ptr noundef nonnull align 8 dereferenceable(8) %6) #20
  %7 = getelementptr inbounds nuw %"class.__gnu_cxx::__normal_iterator.259", ptr %2, i32 0, i32 0
  %8 = load ptr, ptr %7, align 8
  ret ptr %8
}

; Function Attrs: mustprogress uwtable
define internal noundef i32 @_ZNK3ue212_GLOBAL__N_120raw_report_info_impl17getReportListSizeEv(ptr noundef nonnull align 8 dereferenceable(32) %0) unnamed_addr #3 align 2 {
  %2 = alloca ptr, align 8
  %3 = alloca i32, align 4
  %4 = alloca ptr, align 8
  %5 = alloca %"class.__gnu_cxx::__normal_iterator.259", align 8
  %6 = alloca %"class.__gnu_cxx::__normal_iterator.259", align 8
  %7 = alloca ptr, align 8
  store ptr %0, ptr %2, align 8
  %8 = load ptr, ptr %2, align 8
  call void @llvm.lifetime.start.p0(i64 4, ptr %3) #20
  store i32 0, ptr %3, align 4
  call void @llvm.lifetime.start.p0(i64 8, ptr %4) #20
  %9 = getelementptr inbounds nuw %"struct.ue2::(anonymous namespace)::raw_report_info_impl", ptr %8, i32 0, i32 1
  store ptr %9, ptr %4, align 8
  call void @llvm.lifetime.start.p0(i64 8, ptr %5) #20
  %10 = load ptr, ptr %4, align 8
  %11 = call ptr @_ZNKSt6vectorIN3ue212_GLOBAL__N_115raw_report_listESaIS2_EE5beginEv(ptr noundef nonnull align 8 dereferenceable(24) %10) #20
  %12 = getelementptr inbounds nuw %"class.__gnu_cxx::__normal_iterator.259", ptr %5, i32 0, i32 0
  store ptr %11, ptr %12, align 8
  call void @llvm.lifetime.start.p0(i64 8, ptr %6) #20
  %13 = load ptr, ptr %4, align 8
  %14 = call ptr @_ZNKSt6vectorIN3ue212_GLOBAL__N_115raw_report_listESaIS2_EE3endEv(ptr noundef nonnull align 8 dereferenceable(24) %13) #20
  %15 = getelementptr inbounds nuw %"class.__gnu_cxx::__normal_iterator.259", ptr %6, i32 0, i32 0
  store ptr %14, ptr %15, align 8
  br label %16

16:                                               ; preds = %33, %1
  %17 = call noundef zeroext i1 @_ZN9__gnu_cxxneIPKN3ue212_GLOBAL__N_115raw_report_listESt6vectorIS3_SaIS3_EEEEbRKNS_17__normal_iteratorIT_T0_EESE_(ptr noundef nonnull align 8 dereferenceable(8) %5, ptr noundef nonnull align 8 dereferenceable(8) %6) #20
  br i1 %17, label %19, label %18

18:                                               ; preds = %16
  call void @llvm.lifetime.end.p0(i64 8, ptr %6) #20
  call void @llvm.lifetime.end.p0(i64 8, ptr %5) #20
  call void @llvm.lifetime.end.p0(i64 8, ptr %4) #20
  br label %35

19:                                               ; preds = %16
  call void @llvm.lifetime.start.p0(i64 8, ptr %7) #20
  %20 = call noundef nonnull align 8 dereferenceable(32) ptr @_ZNK9__gnu_cxx17__normal_iteratorIPKN3ue212_GLOBAL__N_115raw_report_listESt6vectorIS3_SaIS3_EEEdeEv(ptr noundef nonnull align 8 dereferenceable(8) %5) #20
  store ptr %20, ptr %7, align 8
  %21 = load i32, ptr %3, align 4
  %22 = zext i32 %21 to i64
  %23 = add i64 %22, 4
  %24 = trunc i64 %23 to i32
  store i32 %24, ptr %3, align 4
  %25 = load ptr, ptr %7, align 8
  %26 = getelementptr inbounds nuw %"struct.ue2::(anonymous namespace)::raw_report_list", ptr %25, i32 0, i32 0
  %27 = call noundef i64 @_ZNK3ue211flat_detail9flat_baseIjSt4lessIjESaIjEE4sizeEv(ptr noundef nonnull align 8 dereferenceable(32) %26)
  %28 = mul i64 4, %27
  %29 = load i32, ptr %3, align 4
  %30 = zext i32 %29 to i64
  %31 = add i64 %30, %28
  %32 = trunc i64 %31 to i32
  store i32 %32, ptr %3, align 4
  call void @llvm.lifetime.end.p0(i64 8, ptr %7) #20
  br label %33

33:                                               ; preds = %19
  %34 = call noundef nonnull align 8 dereferenceable(8) ptr @_ZN9__gnu_cxx17__normal_iteratorIPKN3ue212_GLOBAL__N_115raw_report_listESt6vectorIS3_SaIS3_EEEppEv(ptr noundef nonnull align 8 dereferenceable(8) %5) #20
  br label %16

35:                                               ; preds = %18
  %36 = load i32, ptr %3, align 4
  call void @llvm.lifetime.end.p0(i64 4, ptr %3) #20
  ret i32 %36
}