; Function Attrs: mustprogress nofree norecurse nosync nounwind willreturn memory(read, inaccessiblemem: none) uwtable
define internal noundef i32 @_ZNK3ue212_GLOBAL__N_120raw_report_info_impl17getReportListSizeEv(ptr noundef nonnull readonly align 8 captures(none) dereferenceable(32) %0) unnamed_addr #6 align 2 {
  %2 = getelementptr inbounds nuw i8, ptr %0, i64 8
  %.val = load ptr, ptr %2, align 8
  %3 = getelementptr inbounds nuw i8, ptr %0, i64 16
  %.val6 = load ptr, ptr %3, align 8
  %.not11 = icmp eq ptr %.val, %.val6
  br i1 %.not11, label %._crit_edge, label %.lr.ph

._crit_edge:                                      ; preds = %.lr.ph, %1
  %.0.lcssa = phi i32 [ 0, %1 ], [ %8, %.lr.ph ]
  ret i32 %.0.lcssa

.lr.ph:                                           ; preds = %1, %.lr.ph
  %.013 = phi i32 [ %8, %.lr.ph ], [ 0, %1 ]
  %.sroa.010.012 = phi ptr [ %9, %.lr.ph ], [ %.val, %1 ]
  %4 = add i32 %.013, 4
  %5 = getelementptr inbounds nuw i8, ptr %.sroa.010.012, i64 8
  %6 = load i64, ptr %5, align 8
  %.tr = trunc i64 %6 to i32
  %7 = shl i32 %.tr, 2
  %8 = add i32 %4, %7
  %9 = getelementptr inbounds nuw i8, ptr %.sroa.010.012, i64 32
  %.not = icmp eq ptr %9, %.val6
  br i1 %.not, label %._crit_edge, label %.lr.ph
}